; Function Attrs: mustprogress uwtable
define internal void @_ZN12_GLOBAL__N_114_set_addStringEP4USetPKDsi(ptr noundef %0, ptr noundef %1, i32 noundef %2) #0 personality ptr @__gxx_personality_v0 {
  %4 = alloca %"class.icu_77::UnicodeString", align 8
  %5 = alloca %"class.icu_77::ConstChar16Ptr", align 8
  call void @llvm.lifetime.start.p0(i64 64, ptr nonnull %4) #8
  %.lobit = lshr i32 %2, 31
  %6 = trunc nuw nsw i32 %.lobit to i8
  store ptr %1, ptr %5, align 8, !tbaa !50
  invoke void @_ZN6icu_7713UnicodeStringC1EaNS_14ConstChar16PtrEi(ptr noundef nonnull align 8 dereferenceable(64) %4, i8 noundef signext %6, ptr noundef nonnull %5, i32 noundef %2)
          to label %7 unwind label %11

7:                                                ; preds = %3
  %8 = invoke noundef nonnull align 8 dereferenceable(200) ptr @_ZN6icu_7710UnicodeSet3addERKNS_13UnicodeStringE(ptr noundef nonnull align 8 dereferenceable(200) %0, ptr noundef nonnull align 8 dereferenceable(64) %4)
          to label %9 unwind label %13

9:                                                ; preds = %7
  call void @_ZN6icu_7713UnicodeStringD1Ev(ptr noundef nonnull align 8 dereferenceable(64) %4) #8
  %10 = load ptr, ptr %5, align 8, !tbaa !50
  call void asm sideeffect "", "rm,~{memory},~{dirflag},~{fpsr},~{flags}"(ptr %10) #8, !srcloc !52
  call void @llvm.lifetime.end.p0(i64 64, ptr nonnull %4) #8
  ret void

11:                                               ; preds = %3
  %12 = landingpad { ptr, i32 }
          cleanup
  br label %15

13:                                               ; preds = %7
  %14 = landingpad { ptr, i32 }
          cleanup
  call void @_ZN6icu_7713UnicodeStringD1Ev(ptr noundef nonnull align 8 dereferenceable(64) %4) #8
  br label %15

15:                                               ; preds = %13, %11
  %.pn = phi { ptr, i32 } [ %14, %13 ], [ %12, %11 ]
  %16 = load ptr, ptr %5, align 8, !tbaa !50
  call void asm sideeffect "", "rm,~{memory},~{dirflag},~{fpsr},~{flags}"(ptr %16) #8, !srcloc !52
  call void @llvm.lifetime.end.p0(i64 64, ptr nonnull %4) #8
  resume { ptr, i32 } %.pn
}